; Function Attrs: mustprogress nounwind uwtable
define void @_ZN3zmq13poller_base_tD2Ev(ptr noundef nonnull align 8 dereferenceable(80) initializes((0, 8)) %0) unnamed_addr #0 align 2 personality ptr @__gxx_personality_v0 {
  store ptr getelementptr inbounds nuw inrange(-16, 16) (i8, ptr @_ZTVN3zmq13poller_base_tE, i64 16), ptr %0, align 8, !tbaa !3
  %2 = getelementptr inbounds nuw i8, ptr %0, i64 72
  %3 = load atomic i32, ptr %2 seq_cst, align 8
  %.not = icmp eq i32 %3, 0
  br i1 %.not, label %9, label %4, !prof !6

4:                                                ; preds = %1
  %5 = load ptr, ptr @stderr, align 8, !tbaa !7
  %6 = tail call i32 (ptr, ptr, ...) @fprintf(ptr noundef %5, ptr noundef nonnull @.str, ptr noundef nonnull @.str.1, ptr noundef nonnull @.str.2, i32 noundef 11) #15
  %7 = load ptr, ptr @stderr, align 8, !tbaa !7
  %8 = tail call i32 @fflush(ptr noundef %7)
  invoke void @_ZN3zmq9zmq_abortEPKc(ptr noundef nonnull @.str.1)
          to label %9 unwind label %16

9:                                                ; preds = %4, %1
  %10 = getelementptr inbounds nuw i8, ptr %0, i64 24
  %11 = getelementptr inbounds nuw i8, ptr %0, i64 40
  %12 = load ptr, ptr %11, align 8, !tbaa !11
  invoke void @_ZNSt8_Rb_treeImSt4pairIKmN3zmq13poller_base_t12timer_info_tEESt10_Select1stIS5_ESt4lessImESaIS5_EE8_M_eraseEPSt13_Rb_tree_nodeIS5_E(ptr noundef nonnull align 8 dereferenceable(48) %10, ptr noundef %12)
          to label %_ZNSt8multimapImN3zmq13poller_base_t12timer_info_tESt4lessImESaISt4pairIKmS2_EEED2Ev.exit unwind label %13

13:                                               ; preds = %9
  %14 = landingpad { ptr, i32 }
          catch ptr null
  %15 = extractvalue { ptr, i32 } %14, 0
  tail call void @__clang_call_terminate(ptr %15) #16
  unreachable

_ZNSt8multimapImN3zmq13poller_base_t12timer_info_tESt4lessImESaISt4pairIKmS2_EEED2Ev.exit: ; preds = %9
  ret void

16:                                               ; preds = %4
  %17 = landingpad { ptr, i32 }
          catch ptr null
  %18 = extractvalue { ptr, i32 } %17, 0
  tail call void @__clang_call_terminate(ptr %18) #16
  unreachable
}